; ModuleID = '9/1390.c'
source_filename = "9/1390.c"
target datalayout = "e-m:e-p270:32:32-p271:32:32-p272:64:64-i64:64-f80:128-n8:16:32:64-S128"
target triple = "x86_64-pc-linux-gnu"

%struct.kb = type { [10 x i8], i32 }

@.str = private unnamed_addr constant [3 x i8] c"%d\00", align 1
@.str.1 = private unnamed_addr constant [5 x i8] c"%s%d\00", align 1
@kbr = common dso_local global [100 x %struct.kb] zeroinitializer, align 16
@lnr = common dso_local global [100 x %struct.kb] zeroinitializer, align 16
@.str.2 = private unnamed_addr constant [10 x i8] c"000000000\00", align 1
@ln = common dso_local global %struct.kb zeroinitializer, align 4
@.str.3 = private unnamed_addr constant [4 x i8] c"%s\0A\00", align 1

; Function Attrs: noinline nounwind uwtable
define dso_local i32 @main() #0 {
  %1 = alloca i32, align 4
  %2 = alloca i32, align 4
  %3 = alloca i32, align 4
  %4 = alloca i32, align 4
  %5 = alloca i32, align 4
  store i32 0, i32* %1, align 4
  store i32 0, i32* %4, align 4
  %6 = call i32 (i8*, ...) @__isoc99_scanf(i8* getelementptr inbounds ([3 x i8], [3 x i8]* @.str, i64 0, i64 0), i32* %2)
  store i32 0, i32* %3, align 4
  br label %7

7:                                                ; preds = %21, %0
  %8 = load i32, i32* %3, align 4
  %9 = load i32, i32* %2, align 4
  %10 = icmp slt i32 %8, %9
  br i1 %10, label %11, label %24

11:                                               ; preds = %7
  %12 = load i32, i32* %3, align 4
  %13 = sext i32 %12 to i64
  %14 = getelementptr inbounds [100 x %struct.kb], [100 x %struct.kb]* @kbr, i64 0, i64 %13
  %15 = getelementptr inbounds %struct.kb, %struct.kb* %14, i32 0, i32 0
  %16 = load i32, i32* %3, align 4
  %17 = sext i32 %16 to i64
  %18 = getelementptr inbounds [100 x %struct.kb], [100 x %struct.kb]* @kbr, i64 0, i64 %17
  %19 = getelementptr inbounds %struct.kb, %struct.kb* %18, i32 0, i32 1
  %20 = call i32 (i8*, ...) @__isoc99_scanf(i8* getelementptr inbounds ([5 x i8], [5 x i8]* @.str.1, i64 0, i64 0), [10 x i8]* %15, i32* %19)
  br label %21

21:                                               ; preds = %11
  %22 = load i32, i32* %3, align 4
  %23 = add nsw i32 %22, 1
  store i32 %23, i32* %3, align 4
  br label %7

24:                                               ; preds = %7
  store i32 0, i32* %3, align 4
  br label %25

25:                                               ; preds = %66, %24
  %26 = load i32, i32* %3, align 4
  %27 = load i32, i32* %2, align 4
  %28 = icmp slt i32 %26, %27
  br i1 %28, label %29, label %69

29:                                               ; preds = %25
  %30 = load i32, i32* %3, align 4
  %31 = sext i32 %30 to i64
  %32 = getelementptr inbounds [100 x %struct.kb], [100 x %struct.kb]* @kbr, i64 0, i64 %31
  %33 = getelementptr inbounds %struct.kb, %struct.kb* %32, i32 0, i32 1
  %34 = load i32, i32* %33, align 4
  %35 = icmp sge i32 %34, 60
  br i1 %35, label %36, label %65

36:                                               ; preds = %29
  %37 = load i32, i32* %4, align 4
  %38 = sext i32 %37 to i64
  %39 = getelementptr inbounds [100 x %struct.kb], [100 x %struct.kb]* @lnr, i64 0, i64 %38
  %40 = getelementptr inbounds %struct.kb, %struct.kb* %39, i32 0, i32 0
  %41 = getelementptr inbounds [10 x i8], [10 x i8]* %40, i64 0, i64 0
  %42 = load i32, i32* %3, align 4
  %43 = sext i32 %42 to i64
  %44 = getelementptr inbounds [100 x %struct.kb], [100 x %struct.kb]* @kbr, i64 0, i64 %43
  %45 = getelementptr inbounds %struct.kb, %struct.kb* %44, i32 0, i32 0
  %46 = getelementptr inbounds [10 x i8], [10 x i8]* %45, i64 0, i64 0
  %47 = call i8* @strcpy(i8* %41, i8* %46) #5
  %48 = load i32, i32* %3, align 4
  %49 = sext i32 %48 to i64
  %50 = getelementptr inbounds [100 x %struct.kb], [100 x %struct.kb]* @kbr, i64 0, i64 %49
  %51 = getelementptr inbounds %struct.kb, %struct.kb* %50, i32 0, i32 1
  %52 = load i32, i32* %51, align 4
  %53 = load i32, i32* %4, align 4
  %54 = sext i32 %53 to i64
  %55 = getelementptr inbounds [100 x %struct.kb], [100 x %struct.kb]* @lnr, i64 0, i64 %54
  %56 = getelementptr inbounds %struct.kb, %struct.kb* %55, i32 0, i32 1
  store i32 %52, i32* %56, align 4
  %57 = load i32, i32* %4, align 4
  %58 = add nsw i32 %57, 1
  store i32 %58, i32* %4, align 4
  %59 = load i32, i32* %3, align 4
  %60 = sext i32 %59 to i64
  %61 = getelementptr inbounds [100 x %struct.kb], [100 x %struct.kb]* @kbr, i64 0, i64 %60
  %62 = getelementptr inbounds %struct.kb, %struct.kb* %61, i32 0, i32 0
  %63 = getelementptr inbounds [10 x i8], [10 x i8]* %62, i64 0, i64 0
  %64 = call i8* @strcpy(i8* %63, i8* getelementptr inbounds ([10 x i8], [10 x i8]* @.str.2, i64 0, i64 0)) #5
  br label %65

65:                                               ; preds = %36, %29
  br label %66

66:                                               ; preds = %65
  %67 = load i32, i32* %3, align 4
  %68 = add nsw i32 %67, 1
  store i32 %68, i32* %3, align 4
  br label %25

69:                                               ; preds = %25
  store i32 1, i32* %3, align 4
  br label %70

70:                                               ; preds = %118, %69
  %71 = load i32, i32* %3, align 4
  %72 = load i32, i32* %4, align 4
  %73 = icmp slt i32 %71, %72
  br i1 %73, label %74, label %121

74:                                               ; preds = %70
  store i32 0, i32* %5, align 4
  br label %75

75:                                               ; preds = %114, %74
  %76 = load i32, i32* %5, align 4
  %77 = load i32, i32* %4, align 4
  %78 = load i32, i32* %3, align 4
  %79 = sub nsw i32 %77, %78
  %80 = icmp slt i32 %76, %79
  br i1 %80, label %81, label %117

81:                                               ; preds = %75
  %82 = load i32, i32* %5, align 4
  %83 = sext i32 %82 to i64
  %84 = getelementptr inbounds [100 x %struct.kb], [100 x %struct.kb]* @lnr, i64 0, i64 %83
  %85 = getelementptr inbounds %struct.kb, %struct.kb* %84, i32 0, i32 1
  %86 = load i32, i32* %85, align 4
  %87 = load i32, i32* %5, align 4
  %88 = add nsw i32 %87, 1
  %89 = sext i32 %88 to i64
  %90 = getelementptr inbounds [100 x %struct.kb], [100 x %struct.kb]* @lnr, i64 0, i64 %89
  %91 = getelementptr inbounds %struct.kb, %struct.kb* %90, i32 0, i32 1
  %92 = load i32, i32* %91, align 4
  %93 = icmp slt i32 %86, %92
  br i1 %93, label %94, label %113

94:                                               ; preds = %81
  %95 = load i32, i32* %5, align 4
  %96 = add nsw i32 %95, 1
  %97 = sext i32 %96 to i64
  %98 = getelementptr inbounds [100 x %struct.kb], [100 x %struct.kb]* @lnr, i64 0, i64 %97
  %99 = bitcast %struct.kb* %98 to i8*
  call void @llvm.memcpy.p0i8.p0i8.i64(i8* align 4 getelementptr inbounds (%struct.kb, %struct.kb* @ln, i32 0, i32 0, i32 0), i8* align 16 %99, i64 16, i1 false)
  %100 = load i32, i32* %5, align 4
  %101 = add nsw i32 %100, 1
  %102 = sext i32 %101 to i64
  %103 = getelementptr inbounds [100 x %struct.kb], [100 x %struct.kb]* @lnr, i64 0, i64 %102
  %104 = load i32, i32* %5, align 4
  %105 = sext i32 %104 to i64
  %106 = getelementptr inbounds [100 x %struct.kb], [100 x %struct.kb]* @lnr, i64 0, i64 %105
  %107 = bitcast %struct.kb* %103 to i8*
  %108 = bitcast %struct.kb* %106 to i8*
  call void @llvm.memcpy.p0i8.p0i8.i64(i8* align 16 %107, i8* align 16 %108, i64 16, i1 false)
  %109 = load i32, i32* %5, align 4
  %110 = sext i32 %109 to i64
  %111 = getelementptr inbounds [100 x %struct.kb], [100 x %struct.kb]* @lnr, i64 0, i64 %110
  %112 = bitcast %struct.kb* %111 to i8*
  call void @llvm.memcpy.p0i8.p0i8.i64(i8* align 16 %112, i8* align 4 getelementptr inbounds (%struct.kb, %struct.kb* @ln, i32 0, i32 0, i32 0), i64 16, i1 false)
  br label %113

113:                                              ; preds = %94, %81
  br label %114

114:                                              ; preds = %113
  %115 = load i32, i32* %5, align 4
  %116 = add nsw i32 %115, 1
  store i32 %116, i32* %5, align 4
  br label %75

117:                                              ; preds = %75
  br label %118

118:                                              ; preds = %117
  %119 = load i32, i32* %3, align 4
  %120 = add nsw i32 %119, 1
  store i32 %120, i32* %3, align 4
  br label %70

121:                                              ; preds = %70
  store i32 0, i32* %3, align 4
  br label %122

122:                                              ; preds = %133, %121
  %123 = load i32, i32* %3, align 4
  %124 = load i32, i32* %4, align 4
  %125 = icmp slt i32 %123, %124
  br i1 %125, label %126, label %136

126:                                              ; preds = %122
  %127 = load i32, i32* %3, align 4
  %128 = sext i32 %127 to i64
  %129 = getelementptr inbounds [100 x %struct.kb], [100 x %struct.kb]* @lnr, i64 0, i64 %128
  %130 = getelementptr inbounds %struct.kb, %struct.kb* %129, i32 0, i32 0
  %131 = getelementptr inbounds [10 x i8], [10 x i8]* %130, i64 0, i64 0
  %132 = call i32 (i8*, ...) @printf(i8* getelementptr inbounds ([4 x i8], [4 x i8]* @.str.3, i64 0, i64 0), i8* %131)
  br label %133

133:                                              ; preds = %126
  %134 = load i32, i32* %3, align 4
  %135 = add nsw i32 %134, 1
  store i32 %135, i32* %3, align 4
  br label %122

136:                                              ; preds = %122
  store i32 0, i32* %3, align 4
  br label %137

137:                                              ; preds = %157, %136
  %138 = load i32, i32* %3, align 4
  %139 = load i32, i32* %2, align 4
  %140 = icmp slt i32 %138, %139
  br i1 %140, label %141, label %160

141:                                              ; preds = %137
  %142 = load i32, i32* %3, align 4
  %143 = sext i32 %142 to i64
  %144 = getelementptr inbounds [100 x %struct.kb], [100 x %struct.kb]* @kbr, i64 0, i64 %143
  %145 = getelementptr inbounds %struct.kb, %struct.kb* %144, i32 0, i32 0
  %146 = getelementptr inbounds [10 x i8], [10 x i8]* %145, i64 0, i64 0
  %147 = call i32 @strcmp(i8* %146, i8* getelementptr inbounds ([10 x i8], [10 x i8]* @.str.2, i64 0, i64 0)) #6
  %148 = icmp eq i32 %147, 1
  br i1 %148, label %149, label %156

149:                                              ; preds = %141
  %150 = load i32, i32* %3, align 4
  %151 = sext i32 %150 to i64
  %152 = getelementptr inbounds [100 x %struct.kb], [100 x %struct.kb]* @kbr, i64 0, i64 %151
  %153 = getelementptr inbounds %struct.kb, %struct.kb* %152, i32 0, i32 0
  %154 = getelementptr inbounds [10 x i8], [10 x i8]* %153, i64 0, i64 0
  %155 = call i32 (i8*, ...) @printf(i8* getelementptr inbounds ([4 x i8], [4 x i8]* @.str.3, i64 0, i64 0), i8* %154)
  br label %156

156:                                              ; preds = %149, %141
  br label %157

157:                                              ; preds = %156
  %158 = load i32, i32* %3, align 4
  %159 = add nsw i32 %158, 1
  store i32 %159, i32* %3, align 4
  br label %137

160:                                              ; preds = %137
  ret i32 0
}

declare dso_local i32 @__isoc99_scanf(i8*, ...) #1

; Function Attrs: nounwind
declare dso_local i8* @strcpy(i8*, i8*) #2

; Function Attrs: argmemonly nounwind willreturn
declare void @llvm.memcpy.p0i8.p0i8.i64(i8* noalias nocapture writeonly, i8* noalias nocapture readonly, i64, i1 immarg) #3

declare dso_local i32 @printf(i8*, ...) #1

; Function Attrs: nounwind readonly
declare dso_local i32 @strcmp(i8*, i8*) #4


!llvm.module.flags = !{!0}
!llvm.ident = !{!1}

!0 = !{i32 1, !"wchar_size", i32 4}
!1 = !{!"clang version 10.0.0-4ubuntu1 "}
